target datalayout = "e-m:e-p270:32:32-p271:32:32-p272:64:64-i64:64-i128:128-f80:128-n8:16:32:64-S128"
target triple = "x86_64-pc-linux-gnu"

%struct.ossl_record_layer_st = type { ptr, ptr, i32, i32, i32, i32, i32, ptr, i16, ptr, ptr, ptr, i64, i32, [33 x %struct.tls_buffer_st], i64, i64, %struct.tls_buffer_st, [32 x %struct.tls_rl_record_st], i64, i64, i64, i32, ptr, i64, [8 x i8], i32, i32, i64, i32, ptr, ptr, i64, ptr, ptr, i32, i32, i32, i64, i64, i64, [64 x i8], i32, i32, i32, ptr, ptr, i32, i32, i64, ptr, ptr, %struct.dtls_bitmap_st, %struct.dtls_bitmap_st, i32, ptr, ptr, ptr, ptr, ptr, i64, ptr }
%struct.tls_buffer_st = type { ptr, i64, i64, i64, i64, i32, i32 }
%struct.tls_rl_record_st = type { i32, i32, i64, i64, i64, ptr, ptr, ptr, i16, [8 x i8] }
%struct.dtls_bitmap_st = type { i64, [8 x i8] }
%struct.ossl_param_st = type { ptr, i32, ptr, i64, i64 }
%struct.ssl_mac_buf_st = type { ptr, i32 }

@.str = private unnamed_addr constant [42 x i8] c"../openssl/ssl/record/methods/ssl3_meth.c\00", align 1
@.str.1 = private unnamed_addr constant [8 x i8] c"tls-mac\00", align 1
@__func__.ssl3_cipher = private unnamed_addr constant [12 x i8] c"ssl3_cipher\00", align 1

; Function Attrs: nounwind uwtable
define internal i32 @ssl3_cipher(ptr noundef %0, ptr noundef %1, i64 noundef %2, i32 noundef %3, ptr noundef %4, i64 noundef %5) #0 {
  %7 = alloca i32, align 4
  %8 = alloca ptr, align 8
  %9 = alloca ptr, align 8
  %10 = alloca i64, align 8
  %11 = alloca i32, align 4
  %12 = alloca ptr, align 8
  %13 = alloca i64, align 8
  %14 = alloca ptr, align 8
  %15 = alloca ptr, align 8
  %16 = alloca i64, align 8
  %17 = alloca i64, align 8
  %18 = alloca i64, align 8
  %19 = alloca ptr, align 8
  %20 = alloca i32, align 4
  %21 = alloca i32, align 4
  %22 = alloca i32, align 4
  %23 = alloca [2 x %struct.ossl_param_st], align 16
  %24 = alloca ptr, align 8
  %25 = alloca %struct.ossl_param_st, align 8
  %26 = alloca %struct.ossl_param_st, align 8
  store ptr %0, ptr %8, align 8, !tbaa !3
  store ptr %1, ptr %9, align 8, !tbaa !37
  store i64 %2, ptr %10, align 8, !tbaa !12
  store i32 %3, ptr %11, align 4, !tbaa !8
  store ptr %4, ptr %12, align 8, !tbaa !39
  store i64 %5, ptr %13, align 8, !tbaa !12
  call void @llvm.lifetime.start.p0(i64 8, ptr %14) #5
  call void @llvm.lifetime.start.p0(i64 8, ptr %15) #5
  call void @llvm.lifetime.start.p0(i64 8, ptr %16) #5
  call void @llvm.lifetime.start.p0(i64 8, ptr %17) #5
  call void @llvm.lifetime.start.p0(i64 8, ptr %18) #5
  call void @llvm.lifetime.start.p0(i64 8, ptr %19) #5
  call void @llvm.lifetime.start.p0(i64 4, ptr %20) #5
  %27 = load ptr, ptr %9, align 8, !tbaa !37
  store ptr %27, ptr %14, align 8, !tbaa !37
  %28 = load i64, ptr %10, align 8, !tbaa !12
  %29 = icmp ne i64 %28, 1
  br i1 %29, label %30, label %31

30:                                               ; preds = %6
  store i32 0, ptr %7, align 4
  store i32 1, ptr %21, align 4
  br label %209

31:                                               ; preds = %6
  %32 = load ptr, ptr %8, align 8, !tbaa !3
  %33 = getelementptr inbounds nuw %struct.ossl_record_layer_st, ptr %32, i32 0, i32 30
  %34 = load ptr, ptr %33, align 8, !tbaa !33
  store ptr %34, ptr %15, align 8, !tbaa !34
  %35 = load ptr, ptr %15, align 8, !tbaa !34
  %36 = icmp eq ptr %35, null
  br i1 %36, label %41, label %37

37:                                               ; preds = %31
  %38 = load ptr, ptr %15, align 8, !tbaa !34
  %39 = call ptr @EVP_CIPHER_CTX_get0_cipher(ptr noundef %38)
  store ptr %39, ptr %19, align 8, !tbaa !14
  %40 = icmp eq ptr %39, null
  br i1 %40, label %41, label %42

41:                                               ; preds = %37, %31
  store i32 0, ptr %7, align 4
  store i32 1, ptr %21, align 4
  br label %209

42:                                               ; preds = %37
  %43 = load ptr, ptr %19, align 8, !tbaa !14
  %44 = call ptr @EVP_CIPHER_get0_provider(ptr noundef %43)
  %45 = icmp ne ptr %44, null
  %46 = zext i1 %45 to i32
  store i32 %46, ptr %20, align 4, !tbaa !8
  %47 = load ptr, ptr %14, align 8, !tbaa !37
  %48 = getelementptr inbounds nuw %struct.tls_rl_record_st, ptr %47, i32 0, i32 2
  %49 = load i64, ptr %48, align 8, !tbaa !41
  store i64 %49, ptr %16, align 8, !tbaa !12
  %50 = load ptr, ptr %15, align 8, !tbaa !34
  %51 = call i32 @EVP_CIPHER_CTX_get_block_size(ptr noundef %50)
  %52 = sext i32 %51 to i64
  store i64 %52, ptr %18, align 8, !tbaa !12
  %53 = load i64, ptr %18, align 8, !tbaa !12
  %54 = icmp eq i64 %53, 0
  br i1 %54, label %55, label %56

55:                                               ; preds = %42
  store i32 0, ptr %7, align 4
  store i32 1, ptr %21, align 4
  br label %209

56:                                               ; preds = %42
  %57 = load i64, ptr %18, align 8, !tbaa !12
  %58 = icmp ne i64 %57, 1
  br i1 %58, label %59, label %96

59:                                               ; preds = %56
  %60 = load i32, ptr %11, align 4, !tbaa !8
  %61 = icmp ne i32 %60, 0
  br i1 %61, label %62, label %96

62:                                               ; preds = %59
  %63 = load i32, ptr %20, align 4, !tbaa !8
  %64 = icmp ne i32 %63, 0
  br i1 %64, label %96, label %65

65:                                               ; preds = %62
  %66 = load i64, ptr %18, align 8, !tbaa !12
  %67 = load i64, ptr %16, align 8, !tbaa !12
  %68 = load i64, ptr %18, align 8, !tbaa !12
  %69 = urem i64 %67, %68
  %70 = sub i64 %66, %69
  store i64 %70, ptr %17, align 8, !tbaa !12
  %71 = load i64, ptr %17, align 8, !tbaa !12
  %72 = load i64, ptr %16, align 8, !tbaa !12
  %73 = add i64 %72, %71
  store i64 %73, ptr %16, align 8, !tbaa !12
  %74 = load ptr, ptr %14, align 8, !tbaa !37
  %75 = getelementptr inbounds nuw %struct.tls_rl_record_st, ptr %74, i32 0, i32 6
  %76 = load ptr, ptr %75, align 8, !tbaa !43
  %77 = load ptr, ptr %14, align 8, !tbaa !37
  %78 = getelementptr inbounds nuw %struct.tls_rl_record_st, ptr %77, i32 0, i32 2
  %79 = load i64, ptr %78, align 8, !tbaa !41
  %80 = getelementptr inbounds nuw i8, ptr %76, i64 %79
  %81 = load i64, ptr %17, align 8, !tbaa !12
  call void @llvm.memset.p0.i64(ptr align 1 %80, i8 0, i64 %81, i1 false)
  %82 = load i64, ptr %17, align 8, !tbaa !12
  %83 = load ptr, ptr %14, align 8, !tbaa !37
  %84 = getelementptr inbounds nuw %struct.tls_rl_record_st, ptr %83, i32 0, i32 2
  %85 = load i64, ptr %84, align 8, !tbaa !41
  %86 = add i64 %85, %82
  store i64 %86, ptr %84, align 8, !tbaa !41
  %87 = load i64, ptr %17, align 8, !tbaa !12
  %88 = sub i64 %87, 1
  %89 = trunc i64 %88 to i8
  %90 = load ptr, ptr %14, align 8, !tbaa !37
  %91 = getelementptr inbounds nuw %struct.tls_rl_record_st, ptr %90, i32 0, i32 6
  %92 = load ptr, ptr %91, align 8, !tbaa !43
  %93 = load i64, ptr %16, align 8, !tbaa !12
  %94 = sub i64 %93, 1
  %95 = getelementptr inbounds nuw i8, ptr %92, i64 %94
  store i8 %89, ptr %95, align 1, !tbaa !44
  br label %96

96:                                               ; preds = %65, %62, %59, %56
  %97 = load i32, ptr %11, align 4, !tbaa !8
  %98 = icmp ne i32 %97, 0
  br i1 %98, label %109, label %99

99:                                               ; preds = %96
  %100 = load i64, ptr %16, align 8, !tbaa !12
  %101 = icmp eq i64 %100, 0
  br i1 %101, label %107, label %102

102:                                              ; preds = %99
  %103 = load i64, ptr %16, align 8, !tbaa !12
  %104 = load i64, ptr %18, align 8, !tbaa !12
  %105 = urem i64 %103, %104
  %106 = icmp ne i64 %105, 0
  br i1 %106, label %107, label %108

107:                                              ; preds = %102, %99
  store i32 0, ptr %7, align 4
  store i32 1, ptr %21, align 4
  br label %209

108:                                              ; preds = %102
  br label %109

109:                                              ; preds = %108, %96
  %110 = load i32, ptr %20, align 4, !tbaa !8
  %111 = icmp ne i32 %110, 0
  br i1 %111, label %112, label %159

112:                                              ; preds = %109
  call void @llvm.lifetime.start.p0(i64 4, ptr %22) #5
  %113 = load ptr, ptr %15, align 8, !tbaa !34
  %114 = load ptr, ptr %14, align 8, !tbaa !37
  %115 = getelementptr inbounds nuw %struct.tls_rl_record_st, ptr %114, i32 0, i32 5
  %116 = load ptr, ptr %115, align 8, !tbaa !45
  %117 = load ptr, ptr %14, align 8, !tbaa !37
  %118 = getelementptr inbounds nuw %struct.tls_rl_record_st, ptr %117, i32 0, i32 6
  %119 = load ptr, ptr %118, align 8, !tbaa !43
  %120 = load i64, ptr %16, align 8, !tbaa !12
  %121 = trunc i64 %120 to i32
  %122 = call i32 @EVP_CipherUpdate(ptr noundef %113, ptr noundef %116, ptr noundef %22, ptr noundef %119, i32 noundef %121)
  %123 = icmp ne i32 %122, 0
  br i1 %123, label %125, label %124

124:                                              ; preds = %112
  store i32 0, ptr %7, align 4
  store i32 1, ptr %21, align 4
  br label %156

125:                                              ; preds = %112
  %126 = load i32, ptr %22, align 4, !tbaa !8
  %127 = sext i32 %126 to i64
  %128 = load ptr, ptr %14, align 8, !tbaa !37
  %129 = getelementptr inbounds nuw %struct.tls_rl_record_st, ptr %128, i32 0, i32 2
  store i64 %127, ptr %129, align 8, !tbaa !41
  %130 = load i32, ptr %11, align 4, !tbaa !8
  %131 = icmp ne i32 %130, 0
  br i1 %131, label %155, label %132

132:                                              ; preds = %125
  %133 = load ptr, ptr %12, align 8, !tbaa !39
  %134 = icmp ne ptr %133, null
  br i1 %134, label %135, label %155

135:                                              ; preds = %132
  call void @llvm.lifetime.start.p0(i64 80, ptr %23) #5
  call void @llvm.lifetime.start.p0(i64 8, ptr %24) #5
  %136 = getelementptr inbounds [2 x %struct.ossl_param_st], ptr %23, i64 0, i64 0
  store ptr %136, ptr %24, align 8, !tbaa !46
  %137 = load ptr, ptr %12, align 8, !tbaa !39
  %138 = getelementptr inbounds nuw %struct.ssl_mac_buf_st, ptr %137, i32 0, i32 1
  store i32 0, ptr %138, align 8, !tbaa !48
  %139 = load ptr, ptr %24, align 8, !tbaa !46
  %140 = getelementptr inbounds nuw %struct.ossl_param_st, ptr %139, i32 1
  store ptr %140, ptr %24, align 8, !tbaa !46
  call void @llvm.lifetime.start.p0(i64 40, ptr %25) #5
  %141 = load ptr, ptr %12, align 8, !tbaa !39
  %142 = getelementptr inbounds nuw %struct.ssl_mac_buf_st, ptr %141, i32 0, i32 0
  %143 = load i64, ptr %13, align 8, !tbaa !12
  call void @OSSL_PARAM_construct_octet_ptr(ptr dead_on_unwind writable sret(%struct.ossl_param_st) align 8 %25, ptr noundef @.str.1, ptr noundef %142, i64 noundef %143)
  call void @llvm.memcpy.p0.p0.i64(ptr align 8 %139, ptr align 8 %25, i64 40, i1 false), !tbaa.struct !50
  call void @llvm.lifetime.end.p0(i64 40, ptr %25) #5
  %144 = load ptr, ptr %24, align 8, !tbaa !46
  call void @llvm.lifetime.start.p0(i64 40, ptr %26) #5
  call void @OSSL_PARAM_construct_end(ptr dead_on_unwind writable sret(%struct.ossl_param_st) align 8 %26)
  call void @llvm.memcpy.p0.p0.i64(ptr align 8 %144, ptr align 8 %26, i64 40, i1 false), !tbaa.struct !50
  call void @llvm.lifetime.end.p0(i64 40, ptr %26) #5
  %145 = load ptr, ptr %15, align 8, !tbaa !34
  %146 = getelementptr inbounds [2 x %struct.ossl_param_st], ptr %23, i64 0, i64 0
  %147 = call i32 @EVP_CIPHER_CTX_get_params(ptr noundef %145, ptr noundef %146)
  %148 = icmp ne i32 %147, 0
  br i1 %148, label %151, label %149

149:                                              ; preds = %135
  call void @ERR_new()
  call void @ERR_set_debug(ptr noundef @.str, i32 noundef 175, ptr noundef @__func__.ssl3_cipher)
  %150 = load ptr, ptr %8, align 8, !tbaa !3
  call void (ptr, i32, i32, ptr, ...) @ossl_rlayer_fatal(ptr noundef %150, i32 noundef 80, i32 noundef 786691, ptr noundef null)
  store i32 0, ptr %7, align 4
  store i32 1, ptr %21, align 4
  br label %152

151:                                              ; preds = %135
  store i32 0, ptr %21, align 4
  br label %152

152:                                              ; preds = %151, %149
  call void @llvm.lifetime.end.p0(i64 8, ptr %24) #5
  call void @llvm.lifetime.end.p0(i64 80, ptr %23) #5
  %153 = load i32, ptr %21, align 4
  switch i32 %153, label %156 [
    i32 0, label %154
  ]

154:                                              ; preds = %152
  br label %155

155:                                              ; preds = %154, %132, %125
  store i32 0, ptr %21, align 4
  br label %156

156:                                              ; preds = %155, %152, %124
  call void @llvm.lifetime.end.p0(i64 4, ptr %22) #5
  %157 = load i32, ptr %21, align 4
  switch i32 %157, label %209 [
    i32 0, label %158
  ]

158:                                              ; preds = %156
  br label %208

159:                                              ; preds = %109
  %160 = load ptr, ptr %15, align 8, !tbaa !34
  %161 = load ptr, ptr %14, align 8, !tbaa !37
  %162 = getelementptr inbounds nuw %struct.tls_rl_record_st, ptr %161, i32 0, i32 5
  %163 = load ptr, ptr %162, align 8, !tbaa !45
  %164 = load ptr, ptr %14, align 8, !tbaa !37
  %165 = getelementptr inbounds nuw %struct.tls_rl_record_st, ptr %164, i32 0, i32 6
  %166 = load ptr, ptr %165, align 8, !tbaa !43
  %167 = load i64, ptr %16, align 8, !tbaa !12
  %168 = trunc i64 %167 to i32
  %169 = call i32 @EVP_Cipher(ptr noundef %160, ptr noundef %163, ptr noundef %166, i32 noundef %168)
  %170 = icmp slt i32 %169, 1
  br i1 %170, label %171, label %173

171:                                              ; preds = %159
  call void @ERR_new()
  call void @ERR_set_debug(ptr noundef @.str, i32 noundef 182, ptr noundef @__func__.ssl3_cipher)
  %172 = load ptr, ptr %8, align 8, !tbaa !3
  call void (ptr, i32, i32, ptr, ...) @ossl_rlayer_fatal(ptr noundef %172, i32 noundef 20, i32 noundef 786691, ptr noundef null)
  store i32 0, ptr %7, align 4
  store i32 1, ptr %21, align 4
  br label %209

173:                                              ; preds = %159
  %174 = load i32, ptr %11, align 4, !tbaa !8
  %175 = icmp ne i32 %174, 0
  br i1 %175, label %207, label %176

176:                                              ; preds = %173
  %177 = load ptr, ptr %14, align 8, !tbaa !37
  %178 = getelementptr inbounds nuw %struct.tls_rl_record_st, ptr %177, i32 0, i32 2
  %179 = load ptr, ptr %14, align 8, !tbaa !37
  %180 = getelementptr inbounds nuw %struct.tls_rl_record_st, ptr %179, i32 0, i32 3
  %181 = load i64, ptr %180, align 8, !tbaa !52
  %182 = load ptr, ptr %14, align 8, !tbaa !37
  %183 = getelementptr inbounds nuw %struct.tls_rl_record_st, ptr %182, i32 0, i32 5
  %184 = load ptr, ptr %183, align 8, !tbaa !45
  %185 = load ptr, ptr %12, align 8, !tbaa !39
  %186 = icmp ne ptr %185, null
  br i1 %186, label %187, label %190

187:                                              ; preds = %176
  %188 = load ptr, ptr %12, align 8, !tbaa !39
  %189 = getelementptr inbounds nuw %struct.ssl_mac_buf_st, ptr %188, i32 0, i32 0
  br label %191

190:                                              ; preds = %176
  br label %191

191:                                              ; preds = %190, %187
  %192 = phi ptr [ %189, %187 ], [ null, %190 ]
  %193 = load ptr, ptr %12, align 8, !tbaa !39
  %194 = icmp ne ptr %193, null
  br i1 %194, label %195, label %198

195:                                              ; preds = %191
  %196 = load ptr, ptr %12, align 8, !tbaa !39
  %197 = getelementptr inbounds nuw %struct.ssl_mac_buf_st, ptr %196, i32 0, i32 1
  br label %199

198:                                              ; preds = %191
  br label %199

199:                                              ; preds = %198, %195
  %200 = phi ptr [ %197, %195 ], [ null, %198 ]
  %201 = load i64, ptr %18, align 8, !tbaa !12
  %202 = load i64, ptr %13, align 8, !tbaa !12
  %203 = load ptr, ptr %8, align 8, !tbaa !3
  %204 = getelementptr inbounds nuw %struct.ossl_record_layer_st, ptr %203, i32 0, i32 0
  %205 = load ptr, ptr %204, align 8, !tbaa !53
  %206 = call i32 @ssl3_cbc_remove_padding_and_mac(ptr noundef %178, i64 noundef %181, ptr noundef %184, ptr noundef %192, ptr noundef %200, i64 noundef %201, i64 noundef %202, ptr noundef %205)
  store i32 %206, ptr %7, align 4
  store i32 1, ptr %21, align 4
  br label %209

207:                                              ; preds = %173
  br label %208

208:                                              ; preds = %207, %158
  store i32 1, ptr %7, align 4
  store i32 1, ptr %21, align 4
  br label %209

209:                                              ; preds = %208, %199, %171, %156, %107, %55, %41, %30
  call void @llvm.lifetime.end.p0(i64 4, ptr %20) #5
  call void @llvm.lifetime.end.p0(i64 8, ptr %19) #5
  call void @llvm.lifetime.end.p0(i64 8, ptr %18) #5
  call void @llvm.lifetime.end.p0(i64 8, ptr %17) #5
  call void @llvm.lifetime.end.p0(i64 8, ptr %16) #5
  call void @llvm.lifetime.end.p0(i64 8, ptr %15) #5
  call void @llvm.lifetime.end.p0(i64 8, ptr %14) #5
  %210 = load i32, ptr %7, align 4
  ret i32 %210
}