; Function Attrs: nounwind uwtable
define internal i32 @ssl3_cipher(ptr noundef %0, ptr noundef %1, i64 noundef %2, i32 noundef %3, ptr noundef %4, i64 noundef %5) #0 {
  %7 = alloca i32, align 4
  %8 = alloca [2 x %struct.ossl_param_st], align 16
  %9 = alloca %struct.ossl_param_st, align 8
  %.not = icmp eq i64 %2, 1
  br i1 %.not, label %10, label %83

10:                                               ; preds = %6
  %11 = getelementptr inbounds nuw i8, ptr %0, i64 4128
  %12 = load ptr, ptr %11, align 8, !tbaa !23
  %13 = icmp eq ptr %12, null
  br i1 %13, label %83, label %14

14:                                               ; preds = %10
  %15 = tail call ptr @EVP_CIPHER_CTX_get0_cipher(ptr noundef nonnull %12) #5
  %16 = icmp eq ptr %15, null
  br i1 %16, label %83, label %17

17:                                               ; preds = %14
  %18 = tail call ptr @EVP_CIPHER_get0_provider(ptr noundef nonnull %15) #5
  %19 = icmp ne ptr %18, null
  %20 = getelementptr inbounds nuw i8, ptr %1, i64 8
  %21 = load i64, ptr %20, align 8, !tbaa !26
  %22 = tail call i32 @EVP_CIPHER_CTX_get_block_size(ptr noundef nonnull %12) #5
  %23 = sext i32 %22 to i64
  %24 = icmp eq i32 %22, 0
  br i1 %24, label %83, label %25

25:                                               ; preds = %17
  %26 = icmp eq i32 %22, 1
  %27 = icmp eq i32 %3, 0
  %or.cond.not77 = or i1 %27, %26
  %or.cond4 = select i1 %or.cond.not77, i1 true, i1 %19
  br i1 %or.cond4, label %42, label %.thread86

.thread86:                                        ; preds = %25
  %28 = urem i64 %21, %23
  %29 = sub i64 %23, %28
  %30 = add i64 %29, %21
  %31 = getelementptr inbounds nuw i8, ptr %1, i64 40
  %32 = load ptr, ptr %31, align 8, !tbaa !28
  %33 = load i64, ptr %20, align 8, !tbaa !26
  %34 = getelementptr inbounds nuw i8, ptr %32, i64 %33
  tail call void @llvm.memset.p0.i64(ptr align 1 %34, i8 0, i64 %29, i1 false)
  %35 = load i64, ptr %20, align 8, !tbaa !26
  %36 = add i64 %35, %29
  store i64 %36, ptr %20, align 8, !tbaa !26
  %37 = trunc i64 %29 to i8
  %38 = add i8 %37, -1
  %39 = load ptr, ptr %31, align 8, !tbaa !28
  %40 = getelementptr i8, ptr %39, i64 %30
  %41 = getelementptr i8, ptr %40, i64 -1
  store i8 %38, ptr %41, align 1, !tbaa !29
  br label %65

42:                                               ; preds = %25
  br i1 %27, label %43, label %47

43:                                               ; preds = %42
  %44 = icmp eq i64 %21, 0
  br i1 %44, label %83, label %45

45:                                               ; preds = %43
  %46 = urem i64 %21, %23
  %.not78 = icmp eq i64 %46, 0
  br i1 %.not78, label %47, label %83

47:                                               ; preds = %45, %42
  br i1 %19, label %48, label %65

48:                                               ; preds = %47
  call void @llvm.lifetime.start.p0(i64 4, ptr nonnull %7) #5
  %49 = getelementptr inbounds nuw i8, ptr %1, i64 32
  %50 = load ptr, ptr %49, align 8, !tbaa !30
  %51 = getelementptr inbounds nuw i8, ptr %1, i64 40
  %52 = load ptr, ptr %51, align 8, !tbaa !28
  %53 = trunc i64 %21 to i32
  %54 = call i32 @EVP_CipherUpdate(ptr noundef nonnull %12, ptr noundef %50, ptr noundef nonnull %7, ptr noundef %52, i32 noundef %53) #5
  %.not80 = icmp eq i32 %54, 0
  br i1 %.not80, label %64, label %55

55:                                               ; preds = %48
  %56 = load i32, ptr %7, align 4, !tbaa !31
  %57 = sext i32 %56 to i64
  store i64 %57, ptr %20, align 8, !tbaa !26
  %58 = icmp ne ptr %4, null
  %or.cond6 = and i1 %27, %58
  br i1 %or.cond6, label %59, label %.critedge83

59:                                               ; preds = %55
  call void @llvm.lifetime.start.p0(i64 80, ptr nonnull %8) #5
  %60 = getelementptr inbounds nuw i8, ptr %4, i64 8
  store i32 0, ptr %60, align 8, !tbaa !32
  %61 = getelementptr inbounds nuw i8, ptr %8, i64 40
  call void @OSSL_PARAM_construct_octet_ptr(ptr dead_on_unwind nonnull writable sret(%struct.ossl_param_st) align 8 %8, ptr noundef nonnull @.str.1, ptr noundef nonnull %4, i64 noundef %5) #5
  call void @llvm.lifetime.start.p0(i64 40, ptr nonnull %9) #5
  call void @OSSL_PARAM_construct_end(ptr dead_on_unwind nonnull writable sret(%struct.ossl_param_st) align 8 %9) #5
  call void @llvm.memcpy.p0.p0.i64(ptr noundef nonnull align 8 dereferenceable(40) %61, ptr noundef nonnull align 8 dereferenceable(40) %9, i64 40, i1 false), !tbaa.struct !34
  call void @llvm.lifetime.end.p0(i64 40, ptr nonnull %9) #5
  %62 = call i32 @EVP_CIPHER_CTX_get_params(ptr noundef nonnull %12, ptr noundef nonnull %8) #5
  %.not81.not = icmp eq i32 %62, 0
  br i1 %.not81.not, label %63, label %.critedge

63:                                               ; preds = %59
  call void @ERR_new() #5
  call void @ERR_set_debug(ptr noundef nonnull @.str, i32 noundef 175, ptr noundef nonnull @__func__.ssl3_cipher) #5
  call void (ptr, i32, i32, ptr, ...) @ossl_rlayer_fatal(ptr noundef nonnull %0, i32 noundef 80, i32 noundef 786691, ptr noundef null) #5
  call void @llvm.lifetime.end.p0(i64 80, ptr nonnull %8) #5
  br label %64

.critedge:                                        ; preds = %59
  call void @llvm.lifetime.end.p0(i64 80, ptr nonnull %8) #5
  br label %.critedge83

.critedge83:                                      ; preds = %.critedge, %55
  call void @llvm.lifetime.end.p0(i64 4, ptr nonnull %7) #5
  br label %83

64:                                               ; preds = %63, %48
  call void @llvm.lifetime.end.p0(i64 4, ptr nonnull %7) #5
  br label %83

65:                                               ; preds = %.thread86, %47
  %.0708588 = phi i64 [ %30, %.thread86 ], [ %21, %47 ]
  %66 = getelementptr inbounds nuw i8, ptr %1, i64 32
  %67 = load ptr, ptr %66, align 8, !tbaa !30
  %68 = getelementptr inbounds nuw i8, ptr %1, i64 40
  %69 = load ptr, ptr %68, align 8, !tbaa !28
  %70 = trunc i64 %.0708588 to i32
  %71 = tail call i32 @EVP_Cipher(ptr noundef nonnull %12, ptr noundef %67, ptr noundef %69, i32 noundef %70) #5
  %72 = icmp slt i32 %71, 1
  br i1 %72, label %73, label %74

73:                                               ; preds = %65
  tail call void @ERR_new() #5
  tail call void @ERR_set_debug(ptr noundef nonnull @.str, i32 noundef 182, ptr noundef nonnull @__func__.ssl3_cipher) #5
  tail call void (ptr, i32, i32, ptr, ...) @ossl_rlayer_fatal(ptr noundef nonnull %0, i32 noundef 20, i32 noundef 786691, ptr noundef null) #5
  br label %83

74:                                               ; preds = %65
  br i1 %27, label %75, label %83

75:                                               ; preds = %74
  %76 = getelementptr inbounds nuw i8, ptr %1, i64 16
  %77 = load i64, ptr %76, align 8, !tbaa !38
  %78 = load ptr, ptr %66, align 8, !tbaa !30
  %.not79 = icmp eq ptr %4, null
  %79 = getelementptr inbounds nuw i8, ptr %4, i64 8
  %80 = select i1 %.not79, ptr null, ptr %79
  %81 = load ptr, ptr %0, align 8, !tbaa !39
  %82 = tail call i32 @ssl3_cbc_remove_padding_and_mac(ptr noundef nonnull %20, i64 noundef %77, ptr noundef %78, ptr noundef %4, ptr noundef %80, i64 noundef %23, i64 noundef %5, ptr noundef %81) #5
  br label %83

83:                                               ; preds = %74, %.critedge83, %64, %43, %45, %17, %10, %14, %6, %75, %73
  %.0 = phi i32 [ 0, %64 ], [ 0, %73 ], [ %82, %75 ], [ 0, %6 ], [ 0, %14 ], [ 0, %10 ], [ 0, %17 ], [ 0, %45 ], [ 0, %43 ], [ 1, %.critedge83 ], [ 1, %74 ]
  ret i32 %.0
}